target datalayout = "e-m:e-p270:32:32-p271:32:32-p272:64:64-i64:64-i128:128-f80:128-n8:16:32:64-S128"
target triple = "x86_64-pc-linux-gnu"

%struct.BipartiteMatchState = type { i32, i32, ptr, i32, ptr, ptr, ptr, ptr }

; Function Attrs: nounwind uwtable
define dso_local void @BipartiteMatchFree(ptr noundef %0) #0 {
  %2 = alloca ptr, align 8
  store ptr %0, ptr %2, align 8
  %3 = load ptr, ptr %2, align 8
  %4 = getelementptr inbounds nuw %struct.BipartiteMatchState, ptr %3, i32 0, i32 4
  %5 = load ptr, ptr %4, align 8
  call void @pfree(ptr noundef %5)
  %6 = load ptr, ptr %2, align 8
  %7 = getelementptr inbounds nuw %struct.BipartiteMatchState, ptr %6, i32 0, i32 5
  %8 = load ptr, ptr %7, align 8
  call void @pfree(ptr noundef %8)
  %9 = load ptr, ptr %2, align 8
  %10 = getelementptr inbounds nuw %struct.BipartiteMatchState, ptr %9, i32 0, i32 6
  %11 = load ptr, ptr %10, align 8
  call void @pfree(ptr noundef %11)
  %12 = load ptr, ptr %2, align 8
  %13 = getelementptr inbounds nuw %struct.BipartiteMatchState, ptr %12, i32 0, i32 7
  %14 = load ptr, ptr %13, align 8
  call void @pfree(ptr noundef %14)
  %15 = load ptr, ptr %2, align 8
  call void @pfree(ptr noundef %15)
  ret void
}