; Function Attrs: nounwind uwtable
define dso_local void @BipartiteMatchFree(ptr noundef %0) local_unnamed_addr #0 {
  %2 = getelementptr inbounds nuw i8, ptr %0, i64 24
  %3 = load ptr, ptr %2, align 8
  tail call void @pfree(ptr noundef %3) #5
  %4 = getelementptr inbounds nuw i8, ptr %0, i64 32
  %5 = load ptr, ptr %4, align 8
  tail call void @pfree(ptr noundef %5) #5
  %6 = getelementptr inbounds nuw i8, ptr %0, i64 40
  %7 = load ptr, ptr %6, align 8
  tail call void @pfree(ptr noundef %7) #5
  %8 = getelementptr inbounds nuw i8, ptr %0, i64 48
  %9 = load ptr, ptr %8, align 8
  tail call void @pfree(ptr noundef %9) #5
  tail call void @pfree(ptr noundef %0) #5
  ret void
}